(dp0
S'The instance eviction map is \\S+ \\S+\n'
p1
I583
sS'WARNING: giving up on client id \\S+ \\[.*\\] which has not reconnected for \\S+ seconds \\(.*\\) \\[.*\\]\n'
p2
I643
sS"ERROR: \\S+ \\S+ \\S+ \\S+ \\S+  SITE siteq  DISK '.*' \\S+ \\S+\n"
p3
I53
sS'NOTE: \\S+ skipping lock domain \\(.*\\) validation because diskgroup being dismounted\n'
p4
I223
sS'Communication channels reestablished\n'
p5
I31
sS'DIA0 started with \\S+ \\S+ \\S+\n'
p6
I36
sS'WARNING: \\S+ failed to obtain \\S+ quorum of supporting disks in group \\S+ site \\S+\n'
p7
I609
sS'MEMORY_TARGET defaulting to \\S+\n'
p8
I186
sS"ERROR: alter diskgroup \\S+ \\S+ disk '.*' force\n"
p9
I73
sS'NOTE: .*\n'
p10
I193
sS'NOTE: Diskgroups listed in \\S+ are\n'
p11
I250
sS'NOTE: group \\S+ \\S+ updated.\n'
p12
I343
sS'NOTE: cleaned up \\S+ client \\S+ connection state \\(.*\\)\n'
p13
I305
sS'Scan count \\S+\n'
p14
I556
sS'asm agent call crs .//. \\{.*\\} ./\n'
p15
I669
sS'Starting background process \\S+\n'
p16
I566
sS'Tokenized diskstring \\S+\n'
p17
I587
sS'Available system pagesizes:\n'
p18
I18
sS'ORA-15326: specified input \\S+ is \\S+ not an \\S+ file\n'
p19
I475
sS"ERROR: \\S+ \\S+ tst \\S+ \\S+  DISK '.*' \\S+ \\S+\n"
p20
I60
sS'ASM Health Checker found \\S+ new failures\n'
p21
I3
sS'License high water mark = \\S+\n'
p22
I179
sS'ORA-00445: background process ".*" did not start after \\S+ seconds\n'
p23
I425
sS'NOTE: diskgroup resource \\S+ is \\S+\n'
p24
I331
sS'PMON started with \\S+ \\S+ \\S+\n'
p25
I519
sS'Remote instance kill map \\(.*\\) \\S+ \\S+ \\S+\n'
p26
I547
sS'NOTE: cleaning stale remote ownerid \\S+ for client \\S+ \\(.*\\)\n'
p27
I307
sS'Oracle Database \\S+ Enterprise Edition Release \\S+ - 64bit \\S+\n'
p28
I512
sS'NOTE: messaging \\S+ to quiesce pins Unix process pid: \\S+ image: \\S+\n'
p29
I369
sS'WARNING: Started Drop Disk Timeout for Disk \\S+ \\(.*\\) in group \\S+ with \\S+ value \\S+\n'
p30
I626
sS"ASMCMD ./ALTER \\S+ \\S+ \\S+ \\S+ '.*' = '.*'\n"
p31
I6
sS'Evicting instance \\S+ from cluster\n'
p32
I105
sS'Autodiscovered Loopback ips: \\S+\n'
p33
I16
sS'ORA-59709: No site identified for the disk\n'
p34
I501
sS'LMHB started with \\S+ \\S+ \\S+\n'
p35
I170
sS"ERROR: \\S+ \\S+ csdg \\S+ \\S+  SITE sitea  FAILGROUP \\S+  DISK '.*' \\S+ ted1  SIZE \\S+\n"
p36
I59
sS'NOTE: Submit AFDLIB:AFD_KEYS\\(.*\\)\n'
p37
I268
sS'ORA-15033: disk \'.*\' belongs to diskgroup ".*"\n'
p38
I447
sS'NOTE: initiating client \\[.*\\] discovery for group \\S+ \\(.*\\)\n'
p39
I363
sS'Using \\S+ parameter default value as \\S+\n'
p40
I594
sS"ORA-59711: The site identified by \\S+ '.*' does not exist.\n"
p41
I503
sS'Oracle instance running with \\S+ Oracle Direct \\S+ \\S+ Library Version \\S+\n'
p42
I513
sS'afdb_getdiscstr: \\S+\n'
p43
I659
sS'NOTE: Flex client \\S+ \\S+ osid \\S+ mbr \\S+ asmb \\S+ \\(.*\\)\n'
p44
I254
sS'ORA-17502: \\S+ Failed to create file \\S+\n'
p45
I478
sS'Dumping current patch information\n'
p46
I47
sS'NOTE: reset timers for disk: \\S+\n'
p47
I389
sS'NOTE: \\S+ released recovery enqueue for thread \\S+ group \\S+ \\(.*\\)\n'
p48
I220
sS'GMON dumping for group - Done\n'
p49
I126
sS'Version \\S+\n'
p50
I604
sS'WARNING: using default parameter settings without any parameter file\n'
p51
I651
sS'NOTE: erasing header \\(.*\\) on grp \\S+ disk \\S+\n'
p52
I333
sS'NOTE: \\S+ process exiting, either shutdown is in progress or foreground connected to \\S+ was killed.\n'
p53
I217
sS'Dump of system resources acquired for \\S+ \\S+ \\S+ \\(.*\\)\n'
p54
I46
sS'WARNING: dirty detached from lock domain \\S+\n'
p55
I634
sS'WARNING: \\S+ failed to write \\S+ quorum of target disks in group \\S+ site \\S+ \\(.*\\)\n'
p56
I610
sS'ORA-15080: synchronous I/O operation failed to write block \\S+ of disk \\S+ in disk group \\S+\n'
p57
I459
sS'NOTE: voting file allocation \\(.*\\) on grp \\S+ disk \\S+\n'
p58
I406
sS'NOTE: disk validation pending for \\S+ \\S+ in group \\S+ \\(.*\\)\n'
p59
I329
sS'Following system state dump requests \\(.*\\) will \\S+ processed:\n'
p60
I116
sS'detach from dom \\S+ sending detach message to inst \\S+\n'
p61
I675
sS"ERROR: \\S+ \\S+ \\S+ \\S+ \\S+  SITE \\S+  FAILGROUP \\S+  DISK '.*' \\S+ \\S+\n"
p62
I52
sS"ERROR: alter diskgroup vfdg \\S+ site siteb disk '.*' name ted04 force\n"
p63
I88
sS'Submitted all \\S+ remote-cache requests\n'
p64
I569
sS'NOTE: cleaned up \\S+ client \\S+ connection state\n'
p65
I306
sS'kjbdomdet send to inst \\S+\n'
p66
I688
sS'LMD0 \\(.*\\): terminating the instance due to error \\S+\n'
p67
I167
sS'WARNING: \\S+ \\S+ addresses should not \\S+ used on \\S+ engineered systems.\n'
p68
I606
sS'an eviction is expected due environment issues\n'
p69
I666
sS'nowait\n'
p70
I694
sS'WARNING: grp \\S+ disk \\S+ still has contents \\(.*\\)\n'
p71
I646
sS'LMD0 \\(.*\\) has detected no messaging activity from instance \\S+\n'
p72
I166
sS'NOTE: force \\S+ map free for map id \\S+\n'
p73
I336
sS'Using parameter settings in client-side pfile \\S+ on machine \\S+\n'
p74
I596
sS'NOTE: attached to recovery domain \\S+\n'
p75
I285
sS'Machine:\tx86_64\n'
p76
I190
sS'WARNING: offline disk number \\S+ has references \\(.*\\)\n'
p77
I648
sS'ns \\S+ err code: \\S+\n'
p78
I695
sS'NOTE: membership refresh pending for group \\S+ \\(.*\\)\n'
p79
I367
sS'Unexpected return code \\(.*\\) from the Cluster Synchronization Service \\(.*\\)\n'
p80
I592
sS'ORA-29709 .*\n'
p81
I487
sS'kjbdomatt send to inst \\S+\n'
p82
I687
sS'ORA-59716: dropping all disks of the quorum site is not allowed\n'
p83
I504
sS'opiodr aborting process unknown ospid \\(.*\\) as \\S+ result of \\S+\n'
p84
I697
sS'NOTE: volume resource \\S+ is \\S+\n'
p85
I405
sS'NOTE: Advancing \\S+ compatibility to \\S+ for grp \\S+\n'
p86
I237
sS'domain \\S+ valid = \\S+ according to instance \\S+\n'
p87
I678
sS'Process \\S+\n'
p88
I531
sS'ORA-15041: diskgroup ".*" space exhausted\n'
p89
I449
sS'NOTE: cache registered group \\S+ \\S+\n'
p90
I301
sS'NOTE: detected orphaned client id \\S+\n'
p91
I325
sS'ORA-00600: internal error code, arguments: \\[.*\\], \\[.*\\], \\[.*\\], \\[.*\\], \\[.*\\], \\[.*\\], \\[.*\\], \\[.*\\], \\[.*\\], \\[.*\\], \\[.*\\], \\[.*\\]\n'
p92
I429
sS'NOTE: registered owner id \\S+ for \\S+ \\(.*\\)\n'
p93
I376
sS'NOTE: group \\S+ \\S+ \\S+ location: disks \\S+ \\S+ \\S+ \\S+ \\S+ \\S+ \\S+\n'
p94
I340
sS'WARNING: Write Failed. \\S+ \\S+ \\S+ \\S+ \\S+\n'
p95
I628
sS'NOTE: voting file allocation on grp \\S+ disk \\S+\n'
p96
I407
sS'WARNING: Background operations delayed until \\S+ \\S+ because \\S+ was not stopped cleanly and there could \\S+ disconnected client\\(.*\\)\n'
p97
I615
sS'ORA-15344: client \\S+ not found\n'
p98
I476
sS'Remote instance kill is issued with system inc \\S+\n'
p99
I546
sS'ASMCMD ./ALTER \\S+ \\S+ \\S+  \n'
p100
I7
sS'NOTE: process \\S+ \\(.*\\) initiating offline of disk \\S+ \\(.*\\) with mask \\S+ in group \\S+ \\(.*\\) \\S+ client assisting\n'
p101
I372
sS'ORA-15001: diskgroup ".*" does not exist or is not mounted\n'
p102
I437
sS'VKTM started with \\S+ \\S+ \\S+ at elevated \\(.*\\) priority\n'
p103
I603
sS'Nested reconfiguration detected.\n'
p104
I415
sS'NOTE: \\S+ opened thread \\S+ \\(.*\\) at fcn \\S+ \\S+ \\S+ lock \\S+ \\S+ \\S+ \\S+ \\S+ \\S+\n'
p105
I214
sS'LMON received an instance eviction notification from instance \\S+\n'
p106
I173
sS'WARNING: block repair initiating disk offline\n'
p107
I629
sS'NOTE: disk \\S+ had \\S+ error\n'
p108
I328
sS'NOTE: \\S+ has subscribed\n'
p109
I210
sS'RBAL \\(.*\\): terminating the instance due to \\S+ error \\S+\n'
p110
I534
sS'NOTE: Successful voting file relocation on diskgroup \\S+\n'
p111
I269
sS'NOTE: failed resync of disk group \\S+ disks\n'
p112
I335
sS'RECOMMENDATION:\n'
p113
I538
sS'LCK1 started with \\S+ \\S+ \\S+\n'
p114
I160
sS'NOTE: client \\S+ no longer has group \\S+ \\(.*\\) mounted\n'
p115
I314
sS'NOTE: \\S+ process exiting due to \\S+ instance shutdown \\(.*\\)\n'
p116
I215
sS'My inst \\S+ .*\n'
p117
I192
sS'GCR0\\[.*\\]: \\S+ \\S+ process is not making progress for \\S+ secs\n'
p118
I117
sS'NOTE: cache ending mount \\(.*\\) of group \\S+ \\S+ \\S+\n'
p119
I294
sS'NOTE: unable to offline disks after getting write error for diskgroup \\S+\n'
p120
I400
sS'NOTE: client \\S+ id \\S+ has reconnected to \\S+ inst \\S+ \\(.*\\), or has been fenced\n'
p121
I311
sS"IMR0 \\(.*\\) waits for event '.*' for \\S+ secs.\n"
p122
I137
sS'NOTE: unable to write any mirror side for diskgroup \\S+\n'
p123
I401
sS'ERROR: no read quorum in group: required \\S+ found \\S+ disks\n'
p124
I95
sS'TNS-00515: Connect failed because target host or object does not exist\n'
p125
I579
sS'Cluster Communication is configured to use IPs from: GPnP\n'
p126
I29
sS'NOTE: group \\S+ initial \\S+ location: disks \\S+ \\S+\n'
p127
I346
sS'NOTE: \\S+ skipping disk \\S+ \\(.*\\)\n'
p128
I222
sS'NOTE: cache deleting context for group \\S+ \\S+\n'
p129
I291
sS'ORA-15277: disk \\S+ is \\S+ quorum disk\n'
p130
I471
sS'NOTE: \\S+ about to begin recovery lock claims for diskgroup \\S+ \\(.*\\)\n'
p131
I198
sS'NOTE: cache dismounted group \\S+ \\(.*\\)\n'
p132
I292
sS"ERROR: alter diskgroup vfdg online disk '.*'\n"
p133
I90
sS'LICENSE_MAX_SESSION = \\S+\n'
p134
I163
sS'ORA-15066: offlining disk ".*" in group ".*" may result in \\S+ data loss\n'
p135
I454
sS'NOTE: 03/23/16 \\S+ \\S+ copy \\S+ relocating from \\S+ to \\S+ at \\S+ \\S+\n'
p136
I233
sS'NOTE: \\S+ did \\S+ \\S+ recovery for group \\S+ \\(.*\\)\n'
p137
I204
sS'WARNING: failed to write mirror side \\S+ of virtual extent \\S+ logical extent \\S+ of file \\S+ in group \\S+ on disk \\S+ allocation unit \\S+\n'
p138
I641
sS'event                    = ".*"\n'
p139
I679
sS'Load Monitor used for high load check\n'
p140
I183
sS'Diskgroup with \\S+\n'
p141
I45
sS"WARNING: failed to get diskgroup list for database '.*'\n"
p142
I637
sS"ERROR: \\S+ \\S+ \\S+ \\S+  SITE siteb  DISK '.*' \\S+ \\S+\n"
p143
I57
sS"ATTRIBUTE '.*'='.*','.*'='.*','.*'='.*','.*'='.*','.*'='.*' /. \\S+ ./\n"
p144
I10
sS'ORA-15063: \\S+ discovered an insufficient number of disks for diskgroup ".*"\n'
p145
I453
sS'slave \\S+ \\(.*\\)\n'
p146
I703
sS'subsys:\\S+ \\S+ \\S+ \\S+ \\S+\n'
p147
I705
sS'subsys:System \\S+ \\S+ \\S+ osderr2:0x0\n'
p148
I707
sS'GMON dismounting group \\S+ at \\S+ for pid \\S+ osid \\S+\n'
p149
I124
sS'asm agent .//. \\{.*\\} .//. \\S+\n'
p150
I667
sS'GEN0 started with \\S+ \\S+ \\S+\n'
p151
I120
sS'WARNING: Disk Group \\S+ containing \\S+ \\S+ is not mounted\n'
p152
I617
sS'SHARED \\S+ \\S+ \\(.*\\) into memory: \\S+\n'
p153
I550
sS'TNS-12535: TNS:operation timed out\n'
p154
I580
sS'NOTE: initiating dirty detach from lock domain \\S+\n'
p155
I364
sS'NOTE: messaging \\S+ to quiesce pins Unix process pid: \\S+ image: \\S+ \\(.*\\)\n'
p156
I368
sS'NOTE: client \\S+ is exiting\n'
p157
I312
sS'ORA-15186: \\S+ error function = \\[.*\\],  error = .*\n'
p158
I466
sS'NOTE: cache closing disk \\S+ of grp \\S+ .*\n'
p159
I288
sS'KSIPC \\S+ \\S+\n'
p160
I151
sS'Node \\S+\n'
p161
I422
sS'ERROR: alter diskgroup sudg rebalance\n'
p162
I86
sS'WARNING: PST-initiated drop of \\S+ disk\\(.*\\) in group .*\n'
p163
I623
sS'Shutting down instance \\(.*\\) \\(.*\\)\n'
p164
I563
sS'NOTE: aborting instance recovery of domain \\S+ due to diskgroup dismount\n'
p165
I279
sS'NOTE: cache opening disk \\S+ of grp \\S+ \\S+ \\S+\n'
p166
I299
sS'Read failed for disk \\S+ errno \\S+\n'
p167
I539
sS'NOTE: Active use of \\S+ in group \\S+\n'
p168
I234
sS'NOTE: client \\S+ fence duration: \\S+ seconds\n'
p169
I310
sS'Received dirty detach msg from inst \\S+ for dom \\S+\n'
p170
I543
sS'NOTE: Diskgroup used for \\S+ \\S+\n'
p171
I249
sS'ORA-15081: failed to submit an I/O operation to \\S+ disk\n'
p172
I460
sS'validate pdb \\S+ flags \\S+ valid \\S+ pdb flags \\S+\n'
p173
I709
sS'NOTE: Found \\S+ for disk \\S+\n'
p174
I256
sS'Network Resource Management enabled for Process \\S+ \\(.*\\) for Exadata I/O\n'
p175
I416
sS'ORA-59710: site information mismatch between disk group \\S+ and disk /dev/asmdisk/3par108\n'
p176
I502
sS'NOTE: Volume support  enabled\n'
p177
I276
sS'NOTE: checking \\S+ grp = \\S+\n'
p178
I304
sS'SZAUD: Cluster class retrieved from \\S+ is \\[.*\\]. thus skipping setting audit syslog level\n'
p179
I554
sS'WARNING: failed to update diskgroup resource \\S+ \\(.*\\)\n'
p180
I640
sS'NOTE: client \\[.*\\] completed disk validation \\(.*\\)\n'
p181
I316
sS'ORA-29746: Cluster Synchronization Service is being shut down.\n'
p182
I492
sS'NUMA system with \\S+ nodes detected\n'
p183
I414
sS'GEN1 started with \\S+ \\S+ \\S+\n'
p184
I121
sS'NOTE: Proactively cleaning up \\S+ client \\S+ with orphan ownerid \\S+ \\S+ elapsed\n'
p185
I263
sS'WARNING: client \\[.*\\] not responsive for 217s; state=0x1. killing pid \\S+\n'
p186
I631
sS'REBALANCE \\S+\n'
p187
I537
sS'NOTE: updated gpnp profile \\S+ \\S+ to \\S+\n'
p188
I403
sS'GCR0\\[.*\\]: \\S+ process succesfully killed\n'
p189
I119
sS'ORA-488 .*\n'
p190
I493
sS'Dwn-cvts replayed, VALBLKs dubious\n'
p191
I49
sS'LMON \\(.*\\): terminating the instance\n'
p192
I172
sS'NOTE: released resources held for client id \\S+ \\(.*\\)\n'
p193
I380
sS'ORA-29710 .*\n'
p194
I489
sS'CKPT started with \\S+ \\S+ \\S+\n'
p195
I23
sS'dirty detach - domain \\S+ invalid = \\S+\n'
p196
I676
sS'GMON updating for reconfiguration, group \\S+ at \\S+ for pid \\S+ osid \\S+\n'
p197
I130
sS'IP: \\S+ Subnet: \\S+\n'
p198
I139
sS'System name:\tLinux\n'
p199
I574
sS'WARNING: group \\S+ file \\S+ vxn \\S+ block \\S+ write I/O failed\n'
p200
I644
sS"ORA-15028: \\S+ file '.*' not dropped; currently being accessed\n"
p201
I443
sS'ASMCMD ./alter diskgroup /.ASMCMD./ ".*" drop file \'.*\'\n'
p202
I9
sS'NOTE: client \\S+ .*\n'
p203
I309
sS'Supported system pagesize\\(.*\\):\n'
p204
I571
sS'NOTE: cache dismounting \\(.*\\) group \\S+ \\(.*\\)\n'
p205
I293
sS"ERROR: alter diskgroup \\S+ \\S+ site \\S+ disk '.*' force\n"
p206
I74
sS'NOTE: umbilicus traces dumped to \\S+\n'
p207
I399
sS'NOTE: successfully wrote at least one mirror side for diskgroup \\S+\n'
p208
I397
sS'NOTE: closing \\S+ for group: \\S+\n'
p209
I318
sS'WARNING: \\S+ found an alien heartbeat on disk \\S+ \\(.*\\)\n'
p210
I611
sS'NOTE: instance recovery of group \\S+ will recover \\S+ \\S+ \\S+ \\S+ \\S+\n'
p211
I366
sS'NOTE: deferred map free for map id \\S+\n'
p212
I323
sS'MMAN started with \\S+ \\S+ \\S+\n'
p213
I187
sS'VKTM reset to run at normal priority\n'
p214
I600
sS'WARNING: failed to read mirror side \\S+ of virtual extent \\S+ logical extent \\S+ of file \\S+ in group \\[.*\\] from disk \\S+  allocation unit \\S+ reason error; if possible, will try another mirror side\n'
p215
I639
sS'Global Resource Directory frozen\n'
p216
I132
sS'DSKM started with \\S+ \\S+ \\S+\n'
p217
I39
sS'Abort recovery for domain \\S+ flags \\S+\n'
p218
I11
sS'ORA-15186: \\S+ error function = \\[.*\\],  error = \\[.*\\],  mesg = \\[.*\\]\n'
p219
I467
sS"ERROR: alter diskgroup data \\S+ site sitea disk '.*'\n"
p220
I82
sS'Instance terminated by \\S+ pid = \\S+\n'
p221
I150
sS"ORA-15029: disk '.*' is already mounted by this instance\n"
p222
I444
sS'DBW0 started with \\S+ \\S+ \\S+\n'
p223
I35
sS'WARNING: \\S+ disk \\S+ not found \\(.*\\)\n'
p224
I607
sS'ORA-15040: diskgroup is incomplete\n'
p225
I448
sS'NOTE: relocating client \\S+ \\(.*\\) to local instance; \\S+ Instance \\S+ up message from node \\S+\n'
p226
I382
sS'ORA-15186: \\S+ error function = \\[.*\\],  err\n'
p227
I468
sS'ASM instance\n'
p228
I4
sS'allocate domain \\S+ valid . \\S+\n'
p229
I664
sS'Fix write in gcs resources\n'
p230
I115
sS'NOTE: Deferred communication with \\S+ instance\n'
p231
I245
sS'Post \\S+ to start 1st pass \\S+\n'
p232
I529
sS'NOTE: checking \\S+ for grp \\S+ done.\n'
p233
I303
sS"ORA-59001: Disk '.*' must \\S+ online before disk '.*'.\n"
p234
I497
sS'LMS0 started with \\S+ \\S+ \\S+ at elevated \\(.*\\) priority\n'
p235
I177
sS'ERROR: disk \\S+ \\(.*\\) in group \\S+ \\(.*\\) cannot \\S+ offlined because all disks \\[.*\\] with mirrored data would \\S+ offline.\n'
p236
I91
sS'Loopback ip: \\S+\n'
p237
I184
sS'RBAL \\(.*\\): terminating the instance due to error \\S+\n'
p238
I535
sS'DIAG started with \\S+ \\S+ \\S+\n'
p239
I37
sS'XDMG started with \\S+ \\S+ \\S+\n'
p240
I656
sS'Performing system state dump.\n'
p241
I523
sS'Using default \\S+ of \\S+ \\S+\n'
p242
I595
sS'ORA-493 .*\n'
p243
I494
sS'KSXP: \\S+ \\S+ \\S+\n'
p244
I155
sS'NOTE:Waiting for all pending writes to complete before de-registering: grpnum \\S+\n'
p245
I413
sS'ASMB started with \\S+ \\S+ \\S+\n'
p246
I5
sS'ORA-7274 .*\n'
p247
I505
sS'asm_power_limit          = \\S+\n'
p248
I672
sS'WARNING: inbound connection timed out \\(.*\\)\n'
p249
I647
sS'NOTE: cache closing disk \\S+ of grp \\S+ \\(.*\\) \\S+\n'
p250
I289
sS"ORA-15031: disk specification '.*' matches no disks\n"
p251
I445
sS'NOTE: Creating voting files in diskgroup: \\S+\n'
p252
I244
sS'NOTE: updated gpnp profile \\S+ \\S+ \\S+\n'
p253
I402
sS'instance_number obtained from \\S+ = \\S+ checking for the existence of node \\S+\n'
p254
I685
sS'NOTE: timeout \\(.*\\) expired for orphan ownerid \\S+ for client \\S+ \\S+ elapsed\n'
p255
I398
sS'NOTE: will remove stale ownerid \\S+ for client .* \\(.*\\)\n'
p256
I411
sS'running stat on \\S+\n'
p257
I702
sS'ERROR: No disks with \\S+ found on disk group \\S+\n'
p258
I70
sS'Time: \\S+ \\S+\n'
p259
I585
sS'WARNING: \\S+ has insufficient disks to maintain consensus for group \\S+ site \\S+ Minimum required is \\S+ updating \\S+ \\S+ copies from \\S+ total of \\S+\n'
p260
I612
sS"ERROR: \\S+ \\S+ \\S+ \\S+  DISK '.*' \\S+ \\S+\n"
p261
I55
sS'XDWK started with \\S+ \\S+ \\S+\n'
p262
I657
sS'NOTE: Deleting voting files in diskgroup \\S+\n'
p263
I246
sS'NOTE: Failed voting file relocation on diskgroup \\S+\n'
p264
I253
sS'NOTE: advancing ckpt for group \\S+ \\(.*\\) \\S+ \\S+ domain inc# \\S+\n'
p265
I280
sS'ORA-03113: \\S+ on communication channel\n'
p266
I431
sS'ERROR: Could not \\S+ \\S+ for grp \\S+ Force dismounting the disk group.\n'
p267
I68
sS'ORACLE_HOME: \\s*\\S+\n'
p268
I508
sS'Please refer to \\S+ in \\S+ note #1274318.1\n'
p269
I527
sS'Error \\S+ unexpected return code \\S+ from the Cluster Synchronization \\S+\n'
p270
I100
sS'ORA-56841: Master Diskmon cannot connect to \\S+ \\S+\n'
p271
I495
sS"ERROR: alter diskgroup vfdg \\S+ site siteb disk '.*' name ted04\n"
p272
I89
sS'NOTE: client \\[.*\\] declared \\S+ additional pending writes\n'
p273
I317
sS'NOTE: \\S+ closing thread \\S+ of diskgroup \\S+ \\(.*\\) at \\S+ \\S+\n'
p274
I202
sS"ERROR: Unable to get logical block size for spfile '.*'.\n"
p275
I72
sS'TCP/IP \\S+ Protocol Adapter for Linux: Version \\S+ - Production\n'
p276
I577
sS'Warning: \\S+ processes are still attach to shmid \\S+\n'
p277
I654
sS'NOTE: initiating resync of disk group \\S+ disks\n'
p278
I365
sS'Shutting down instance: further logons disabled\n'
p279
I564
sS'Instance Critical Process \\(.*\\) died unexpectedly\n'
p280
I147
sS'Remote instance kill map \\(.*\\) \\S+ \\S+\n'
p281
I548
sS'Error \\S+ Cluster Synchronization Service is shutting down\n'
p282
I99
sS'ORA-27061: waiting for async I/Os failed\n'
p283
I481
sS'WARNING: Site \\S+ will \\S+ quarantined\n'
p284
I625
sS'ORA-07274: spdcr: access error, access to oracle denied.\n'
p285
I434
sS'Received an instance abort message from instance \\S+\n'
p286
I541
sS'ARBA started with \\S+ \\S+ \\S+\n'
p287
I1
sS'instance \\S+ validates domain \\S+\n'
p288
I684
sS'freeing rdom \\S+\n'
p289
I681
sS'USER \\(.*\\): terminating the instance due to \\S+ error \\S+\n'
p290
I589
sS'End lmon rcfg omni enqueue reconfig \\S+\n'
p291
I98
sS"ORA-59706: The specified allocation unit size '.*' is less than the minimum required for extended disk groups.\n"
p292
I499
sS'NOTE: initiating \\S+ startup\n'
p293
I360
sS'ORA-17503: \\S+ Failed to open file .DATA/orapwasm\n'
p294
I479
sS'No patches have been applied\n'
p295
I421
sS'Additional information: \\S+\n'
p296
I12
sS'ORA-15075: disk \\S+ is not visible on instance number \\S+\n'
p297
I456
sS'NOTE: The rdbms compatibility of group \\S+ is \\S+\n'
p298
I272
sS'ORA-15013: diskgroup ".*" is already mounted\n'
p299
I438
sS'NOTE: Flex client id \\S+ \\[.*\\] attempting to \\S+\n'
p300
I255
sS'ORACLE_BASE from environment = \\S+\n'
p301
I506
sS"ERROR: alter diskgroup data \\S+ site siteb disk '.*'\n"
p302
I84
sS'ORA-15291: \\S+ could not \\S+ disk ".*" to disk group ".*"\n'
p303
I473
sS'Master broadcasted resource hash value bitmaps\n'
p304
I191
sS'NOTE: registered owner id \\S+ for \\S+\n'
p305
I377
sS'Begin lmon rcfg omni enqueue reconfig \\S+\n'
p306
I19
sS'ERROR: updating header of disk \\S+ with voting file information\n'
p307
I97
sS'NOTE: crash recovery of group \\S+ will recover \\S+ \\S+ \\S+ \\S+ \\S+\n'
p308
I321
sS'NOTE: group \\S+ \\S+ \\S+ location: disks \\S+ \\S+ \\S+\n'
p309
I341
sS'ASM \\S+ ./\n'
p310
I2
sS'All grantable enqueues granted\n'
p311
I13
sS'GMON started with \\S+ \\S+ \\S+\n'
p312
I128
sS'NOTE: cache mounting \\(.*\\) \\S+ redundancy group \\S+ \\(.*\\)\n'
p313
I297
sS'NOTE: Refresh completed on diskgroup \\S+ \\S+ \\S+ \\S+ .*\n'
p314
I264
sS'NOTE: allocating \\S+ \\(.*\\) on grp \\S+ disk \\S+\n'
p315
I281
sS"ERROR: alter diskgroup data online disk '.*' force\n"
p316
I85
sS'IMR has experienced some problems and can.*\n'
p317
I135
sS'NOTE: rebalance interrupted for group \\S+ \\(.*\\)\n'
p318
I373
sS"ERROR: \\S+ \\S+ \\S+ \\S+ \\S+  DISK '.*' \\S+ \\S+\n"
p319
I51
sS'Linux-x86_64 Error: \\S+ Input/output error\n'
p320
I180
sS'Process termination requested for pid \\S+ \\[.*\\], \\[.*\\] \\[.*\\]\n'
p321
I532
sS'NOTE: cache recovered group \\S+ to fcn \\S+\n'
p322
I300
sS'NOTE: assigning \\S+ to group \\S+ \\(.*\\) with \\S+ parallel I/O\n'
p323
I284
sS"ORA-15173: entry '.*' does not exist in directory '.*'\n"
p324
I464
sS'Binary of new process does not match binary which started instance\n'
p325
I20
sS'Expecting \\S+ \\S+ instances to leave the cluster.\n'
p326
I112
sS'No label in disk \\S+\n'
p327
I420
sS'NOTE: cache mounting group \\S+ \\(.*\\) succeeded\n'
p328
I298
sS'Exception \\[.*\\] \\[.*\\] \\[.*\\] \\[.*\\]\n'
p329
I109
sS'TNS for Linux: Version \\S+ - Production\n'
p330
I578
sS'IO elapsed time: \\S+ usec Time waited on I/O: \\S+ usec\n'
p331
I138
sS'PAGESIZE  AVAILABLE_PAGES  EXPECTED_PAGES  ALLOCATED_PAGES  ERROR\\(.*\\)\n'
p332
I514
sS'Shared memory segment for instance monitoring created\n'
p333
I561
sS'issue alter system set ".*" = true to disable these messages\n'
p334
I686
sS'PSP0 started with \\S+ \\S+ \\S+\n'
p335
I520
sS'ORA-15018: diskgroup cannot \\S+ created\n'
p336
I440
sS'start recovery: pdb \\S+ passed in flags \\S+ \\(.*\\)\n'
p337
I704
sS'ORA-15080: synchronous I/O operation failed to read block \\S+ of disk \\S+ in disk group\n'
p338
I458
sS'NOTE: \\S+ process exiting due to lack of \\S+ file activity for \\S+ seconds\n'
p339
I216
sS'NOTE: \\S+ requested to fence client \\S+ id \\S+ \\S+\n'
p340
I221
sS'ORA-59709: No site identified for the disk \\S+\n'
p341
I500
sS'USER \\(.*\\): terminating the instance due to error \\S+\n'
p342
I590
sS'NOTE: initiating \\S+ update: grp \\S+ \\(.*\\), dsk = \\S+ mask = \\S+ op = \\S+ mandatory\n'
p343
I361
sS'Stopping background process \\S+\n'
p344
I567
sS'NOTE: header on disk \\S+ advanced to format #2 using fcn \\S+\n'
p345
I356
sS'Cluster Synchronization Service is shutting down\n'
p346
I30
sS'ORA-00604: error occurred at recursive \\S+ level \\S+\n'
p347
I430
sS'ORA-1092 \\S+ opitsk aborting process\n'
p348
I436
sS'NOTE: No voting file found on diskgroup \\S+\n'
p349
I260
sS'Could not connect to other instances in the cluster during startup. Hence, \\S+ is terminating the instance. Please check the \\S+ trace file for details. Also, please check the network logs of this instance along with clusterwide network health for problems and then re-start this instance.\n'
p350
I33
sS'WARNING: Disk Group \\S+ containing spfile for this instance is not mounted\n'
p351
I618
sS'NOTE: relocating client \\S+ \\(.*\\) to its local instance; Message from node \\S+ - \\S+ Instance \\S+ is \\S+\n'
p352
I381
sS'LGWR started with \\S+ \\S+ \\S+\n'
p353
I162
sS'NOTE: Cleaning up fence pending client id \\S+ \\[.*\\] \\(.*\\) \\[.*\\]\n'
p354
I240
sS'MMNL started with \\S+ \\S+ \\S+\n'
p355
I188
sS'afd_discovery string: \\S+\n'
p356
I658
sS'VKTM running at \\(.*\\) precision\n'
p357
I601
sS'IPC Send timeout detected. Sender: ospid \\S+ \\[.*\\]\n'
p358
I140
sS'NOTE: relocating client \\S+ \\(.*\\)\n'
p359
I383
sS'NOTE: GroupBlock outside rolling migration privileged region\n'
p360
I257
sS'subsys:OSS \\S+ \\S+ \\S+ osderr2:0x0\n'
p361
I706
sS"SHUTDOWN: waiting for detached processes '.*' to terminate.\n"
p362
I551
sS'Direct \\S+ channel id \\[.*\\] path \\[.*\\] to filer \\[.*\\] via local \\[.*\\] is \\S+  \n'
p363
I42
sS'ORA-15027: active use of diskgroup ".*" precludes its dismount\n'
p364
I442
sS'ERROR: .*\n'
p365
I50
sS'Reconfiguration \\S+ \\(.*\\)\n'
p366
I545
sS'ERROR: Shared memory area is accessible to instance startup process\n'
p367
I71
sS'ORA-29710: Current operation aborted by Cluster Synchronization Services\n'
p368
I490
sS'ORA-29701: unable to connect to Cluster Synchronization Service\n'
p369
I484
sS'NOTE: \\S+ \\S+ \\S+ \\S+ for \\S+ \\S+ \\(.*\\)\n'
p370
I195
sS'LICENSE_SESSIONS_WARNING = \\S+\n'
p371
I165
sS"ERROR: alter diskgroup data \\S+ site siteb disk '.*' force\n"
p372
I83
sS'NOTE: repairing extent \\S+ of file \\S+ group \\S+\n'
p373
I387
sS'PING started with \\S+ \\S+ \\S+\n'
p374
I515
sS'NOTE: starting \\S+ \\S+\n'
p375
I394
sS'ERROR: /. \\S+ ./alter diskgroup /.ASMCMD./ ".*" drop file \'.*\'\n'
p376
I66
sS'ORA-06512: at ".*", line \\S+\n'
p377
I432
sS'WARNING: failed to online diskgroup resource \\S+ \\(.*\\)\n'
p378
I638
sS'ORA-15245: \\S+ disk \\S+ is already online or being brought online.\n'
p379
I469
sS'NOTE: assigning \\S+ to group \\S+ \\(.*\\) to compute estimates\n'
p380
I283
sS'GMON dumping for group \\S+\n'
p381
I125
sS'NOTE: \\S+ sync \\S+ last written \\S+ \\S+\n'
p382
I227
sS'NOTE: found stale ownerid \\S+ for client \\S+\n'
p383
I337
sS'NOTE: group \\S+ updated \\S+ location: disks \\S+ \\S+\n'
p384
I353
sS'ERROR: alter diskgroup \\S+ online disk .*\n'
p385
I79
sS"ERROR: alter diskgroup \\S+ online disk '.*' force\n"
p386
I80
sS'PXMN started with \\S+ \\S+ \\S+\n'
p387
I521
sS'Starting \\S+ instance \\(.*\\) \\(.*\\)\n'
p388
I565
sS'NOTE: Created Virtual Allocation Locator \\(.*\\) and Table \\(.*\\) directories for group \\S+ \\(.*\\)\n'
p389
I243
sS'KSIPC Loopback \\S+ addresses\\(.*\\):\n'
p390
I153
sS'Fatal \\S+ connect error \\S+\n'
p391
I114
sS'Expected per process system memlock \\(.*\\) limit to lock\n'
p392
I111
sS'Incident details in: \\S+\n'
p393
I144
sS'PMAN started with \\S+ \\S+ \\S+\n'
p394
I516
sS'afdt_check_syntax: \\S+\n'
p395
I661
sS'NOTE: initializing header \\(.*\\) on grp \\S+ disk \\S+\n'
p396
I358
sS'asm agent .//. \\{.*\\} ./\n'
p397
I668
sS"ORA-59703: Inconsistent site information in disk '.*'\n"
p398
I498
sS'WARNING: \\S+ does not support ipclw. Switching to skgxp\n'
p399
I608
sS'NOTE: blocked Flex client \\S+ registered, osid \\S+ mbr \\S+ asmb \\S+ \\(.*\\)\n'
p400
I286
sS'Submitted all remote-enqueue requests\n'
p401
I570
sS'ORA-15416: \\S+ disk \\S+ in disk group \\S+ is offline.\n'
p402
I477
sS'There are no devices to discover.\n'
p403
I584
sS'Receiver: inst \\S+ binc \\S+ ospid \\S+\n'
p404
I544
sS'cluster interconnect \\S+ version: Oracle \\S+ \\(.*\\)\n'
p405
I673
sS'WARNING: failed to find state to reconnect client \\S+ id \\S+ \\S+ after \\S+ secs\n'
p406
I636
sS'ORA-15133: instance recovery required for diskgroup \\S+\n'
p407
I463
sS'ORA-15042: \\S+ disk ".*" is missing from group number ".*"\n'
p408
I450
sS'Set master node info\n'
p409
I560
sS'Errors in file \\S+\n'
p410
I104
sS'CLI notifier \\S+ \\S+\n'
p411
I24
sS'NOTE: \\S+ \\(.*\\) connected to \\S+ instance \\S+ osid: \\S+ \\(.*\\)\n'
p412
I194
sS'KSIPC: Client: \\S+ Transport: \\S+\n'
p413
I154
sS'ORA-29709: Communication failure with Cluster Synchronization Services\n'
p414
I488
sS'ORA-15020: discovered duplicate \\S+ disk ".*"\n'
p415
I441
sS'NOTE: detached from domain \\S+\n'
p416
I324
sS'WARNING: Hbeat \\S+ to \\S+ disk \\S+ in group \\S+ failed. \\[.*\\]\n'
p417
I620
sS'NOTE: Erasing header on \\S+\n'
p418
I251
sS'IMR has experienced some problems during thread mount, \\(.*\\)\n'
p419
I136
sS'NOTE: disk \\S+ \\(.*\\) in group \\S+ \\(.*\\) is locally offline for writes\n'
p420
I327
sS'WARNING: could not find any \\S+ disk in grp \\S+\n'
p421
I633
sS'VERSION \\S+\n'
p422
I599
sS'NOTE: check client alert log.\n'
p423
I302
sS'Waiting for instances to leave: \\S+ \\S+\n'
p424
I652
sS'ORA-15017: diskgroup ".*" cannot \\S+ mounted\n'
p425
I439
sS'Using parameter settings in client-side pfile\n'
p426
I597
sS'remote_login_passwordfile= ".*"\n'
p427
I700
sS'Archiving is disabled\n'
p428
I14
sS'ERROR: \\S+ terminating the instance due to storage split in grp \\S+\n'
p429
I63
sS'NOTE: skipping rediscovery for group \\S+ \\(.*\\) on local instance.\n'
p430
I393
sS'KSXP: setting socket save mode to \\S+\n'
p431
I156
sS'NOTE: Standard client \\S+ registered, osid \\S+ mbr \\S+ asmb \\S+ \\(.*\\)\n'
p432
I266
sS'NOTE: removing stale \\S+ \\S+ for client \\S+ \\(.*\\)\n'
p433
I385
sS'nt \\S+ err code: \\S+\n'
p434
I696
sS'NOTE: \\S+ fcn on disk \\S+ synced at fcn \\S+\n'
p435
I208
sS'NOTE: group \\S+ updated \\S+ location: disks \\S+ \\S+ \\S+ \\S+\n'
p436
I351
sS'Tracing not turned on.\n'
p437
I588
sS'NOTE: completed online of disk group \\S+ disks\n'
p438
I320
sS'NOTE: requesting \\S+ \\S+ \\S+ for \\S+\n'
p439
I388
sS'NOTE: Instance updated \\S+ to \\S+ for grp \\S+ \\(.*\\).\n'
p440
I258
sS'Fatal \\S+ connect error \\S+ connecting to:\n'
p441
I113
sS'NOTE: Voting File refresh pending for group \\S+ \\(.*\\)\n'
p442
I277
sS'System State dumped to trace file \\S+\n'
p443
I573
sS'NOTE: group \\S+ initial \\S+ location: disks \\S+ \\S+ \\S+\n'
p444
I345
sS'WARNING: client \\[.*\\] cleanup delayed; waited \\S+ pid \\S+ mbr \\S+\n'
p445
I630
sS'NOTE: \\S+ update grp = \\S+ completed successfully\n'
p446
I228
sS'No Cluster Synchronization Service reconfig event in \\S+ seconds\n'
p447
I419
sS'ORA-15032: not all alterations performed\n'
p448
I446
sS'dead instance detected - domain \\S+ invalid = \\S+\n'
p449
I674
sS'KSIPC Available Transports: \\S+\n'
p450
I152
sS'NOTE: starting rebalance of group \\S+ \\(.*\\) at power \\S+\n'
p451
I395
sS'large_pool_size          = \\S+\n'
p452
I691
sS'afdt_libinit: \\S+\n'
p453
I663
sS'NOTE: erasing header on grp \\S+ disk \\S+\n'
p454
I334
sS'NOTE: \\S+ clearing idle groups before exit\n'
p455
I200
sS'afdb_scandisk: \\S+\n'
p456
I660
sS'Client address: \\(.*\\)\n'
p457
I28
sS'ORA-27061: waiting for \\S+\n'
p458
I480
sS'NOTE: waiting for instance recovery of group \\S+\n'
p459
I410
sS'kjidomenacan initialized to \\S+\n'
p460
I689
sS'High Throughput Write functionality enabled\n'
p461
I134
sS'NOTE: group \\S+ updated \\S+ location: disks \\S+ \\S+ \\S+ \\S+ \\S+ \\S+\n'
p462
I349
sS'NOTE: \\S+ expansion required for disk group \\S+\n'
p463
I207
sS"OS Pid: \\S+ executed alter system set events '.*'\n"
p464
I509
sS'NOTE: group \\S+ updated \\S+ location: disks \\S+ \\S+ \\S+\n'
p465
I352
sS'LMS \\S+ \\S+ \\S+ shadows cancelled, \\S+ closed, \\S+ Xw survived, skipped \\S+\n'
p466
I175
sS'NOTE: Starting expel slave for group \\S+ \\(.*\\)\n'
p467
I267
sS'NOTE: \\S+ successfully validated lock domain \\S+ inc \\S+ \\(.*\\)\n'
p468
I225
sS'NOTE: cache is mounting group \\S+ created on \\S+ \\S+\n'
p469
I296
sS'CELL communication is configured to use \\S+ interface\\(.*\\):\n'
p470
I22
sS'NOTE: Termination of \\S+ session succeeded for \\[.*\\] due to instance shutdown\n'
p471
I271
sS'ORA-00481: \\S+ process terminated with error\n'
p472
I427
sS'WARNING: \\S+ unable to close thread \\S+ group \\S+ \\(.*\\) due to disconnected client\\(.*\\) from previous incarnation of \\S+ cluster\n'
p473
I614
sS'ERROR: \\S+ in \\S+ recovery for diskgroup \\S+ \\(.*\\)\n'
p474
I62
sS'GMON updating disk modes for group \\S+ at \\S+ for pid \\S+ osid \\S+\n'
p475
I129
sS'NOTE: \\S+ waiting for thread \\S+ recovery enqueue\n'
p476
I230
sS'WARNING: \\(.*\\) disk offline and rejecting I/O\n'
p477
I605
sS'WARNING: Waited \\S+ secs for write \\S+ to \\S+ disk \\S+ in group \\S+\n'
p478
I627
sS'ERROR: \\S+ failed to obtain \\S+ global quorum of supporting sites in group \\S+ \\(.*\\)\n'
p479
I61
sS'GMON \\(.*\\): terminating the instance due to error \\S+\n'
p480
I122
sS'WARNING: grp \\S+ all disks in quorum site siteq being dropped.\n'
p481
I645
sS'WARNING: Oracle executable binary mismatch detected.\n'
p482
I622
sS'NOTE: \\S+ recovery sucessfully read \\S+ from one mirror side\n'
p483
I218
sS'WARNING: promoting mount of diskgroup \\S+ to force.\n'
p484
I649
sS'WARNING: could not find \\S+ disk\n'
p485
I632
sS'afdt_errorsLEM: \\S+\n'
p486
I662
sS'Use \\S+ or Support Workbench to package the incident.\n'
p487
I593
sS'Non-local Process blocks cleaned out\n'
p488
I423
sS'NOTE: Diskgroup used for \\S+ \\S+ \\S+\n'
p489
I248
sS'LMON started with \\S+ \\S+ \\S+\n'
p490
I174
sS'Please refer at \\S+ trace file for details.\n'
p491
I526
sS'NOTE: group \\S+ initial \\S+ location: disks \\S+ \\S+ \\S+ \\S+ \\S+ \\S+ \\S+\n'
p492
I344
sS'ORA-29701 .*\n'
p493
I483
sS'disk: \\S+ \\S+ \\S+ file number: \\S+ extent: \\S+\n'
p494
I677
sS'WARNING: found another non-responsive disk \\S+ \\(.*\\) that will \\S+ offlined\n'
p495
I642
sS'ERROR: alter diskgroup \\S+ drop disk \\S+ force /. \\S+ \\S+ ./\n'
p496
I78
sS'ORA-56864: Master Diskmon ".*" operation cannot complete because of \\S+ \\S+ network error\n'
p497
I496
sS'NOTE: \\S+ did instance recovery for group \\S+ domain \\S+\n'
p498
I205
sS'Please see \\S+ and oraping trace files for details.\n'
p499
I528
sS'KSXPPING: \\S+ selected for Ping\n'
p500
I157
sS'NOTE: cache creating group \\S+ \\(.*\\)\n'
p501
I290
sS'ERROR: /. \\S+ ./ALTER \\S+ \\S+ \\S+\n'
p502
I65
sS'validated domain \\S+ flags = \\S+\n'
p503
I710
sS'WARNING: Found \\S+ stale FDs on foreground processes\n'
p504
I619
sS'NOTE: \\S+ doing \\S+ dismount of group \\S+ \\(.*\\) thread \\S+\n'
p505
I206
sS'OS ping to instance \\S+ has \\S+\n'
p506
I510
sS'ERROR: alter diskgroup \\S+ rebalance\n'
p507
I81
sS'Creating new log segment:\n'
p508
I34
sS'MARK started with \\S+ \\S+ \\S+\n'
p509
I185
sS'to lock 100% of \\S+ \\S+ \\S+ \\(.*\\) pages into physical memory\n'
p510
I708
sS'NOTE: Suppressing further \\S+ \\S+ errors on \\S+ \\S+\n'
p511
I270
sS'NOTE: setting \\S+ start \\S+ for group \\S+ thread \\S+ to \\S+\n'
p512
I392
sS'NOTE: Cluster configuration type = \\S+ \\[.*\\]\n'
p513
I241
sS'Linux-x86_64 Error: \\S+ No such file or directory\n'
p514
I181
sS'NOTE: client \\S+ mounted group \\S+ \\(.*\\)\n'
p515
I313
sS'SZAUD: Failed to initialized \\S+ \\[.*\\] \\[.*\\]\n'
p516
I555
sS'Session \\S+ \\S+ Serial number: \\S+\n'
p517
I559
sS'ORA-00493: \\S+ process terminated with error\n'
p518
I428
sS'NOTE: set version \\S+ for asmCompat \\S+ for group \\S+\n'
p519
I391
sS"Exadata error:'.*'\n"
p520
I108
sS'NOTE: Advanced to new \\S+ format for group \\S+\n'
p521
I236
sS'WARNING: Offline of disk \\S+ \\(.*\\) in group \\S+ and mode \\S+ failed on \\S+ inst \\S+\n'
p522
I621
sS'LCK0 started with \\S+ \\S+ \\S+\n'
p523
I159
sS'NOTE: Adding disk \\S+ \\(.*\\) to grp \\S+ \\(.*\\) \\(.*\\)\n'
p524
I235
sS'ARB0 started with \\S+ \\S+ \\S+\n'
p525
I0
sS'NOTE: voting file deletion \\(.*\\) on grp \\S+ disk \\S+\n'
p526
I408
sS'NOTE: reopening \\S+ disks for group \\S+\n'
p527
I386
sS'LMHB \\(.*\\): terminating the instance due to error \\S+\n'
p528
I169
sS'Dirty Detach Reconfiguration complete \\(.*\\)\n'
p529
I43
sS'NOTE: ospid \\S+ initiating cluster wide offline of disk \\S+ in group \\S+\n'
p530
I370
sS'NOTE: released resources held for \\S+ \\S+\n'
p531
I379
sS'NOTE: ospid \\S+ initiating cluster wide offline of disks \\S+ and \\S+ in group \\S+\n'
p532
I371
sS'Global Resource Directory partially frozen for dirty detach\n'
p533
I133
sS'ERROR: \\S+ thrown in \\S+ for group number \\S+\n'
p534
I64
sS'Autotune of undo retention is turned on.\n'
p535
I17
sS'IPC Vendor \\S+ proto \\S+\n'
p536
I143
sS'NOTE: \\S+ successfully wrote to at least one mirror side\n'
p537
I226
sS'NOTE: voting file deletion on grp \\S+ disk \\S+\n'
p538
I409
sS'PMON \\(.*\\): terminating the instance due to error \\S+\n'
p539
I518
sS"DISK '.*' \\S+ \\S+\n"
p540
I38
sS'System parameters with non-default values:\n'
p541
I575
sS'ORA-15062: \\S+ disk is globally closed\n'
p542
I452
sS'WARNING: Disk \\S+ \\(.*\\) in group \\S+ will \\S+ dropped in: \\(.*\\) secs on \\S+ inst \\S+\n'
p543
I616
sS'NOTE: initial disk modes for disk \\S+ \\(.*\\) in group \\S+ \\(.*\\) is not completely online: modes \\S+ lflags \\S+\n'
p544
I357
sS'New Low - High Load Threshold Range = \\[.*\\]\n'
p545
I417
sS'GMON updating group \\S+ at \\S+ for pid \\S+ osid \\S+\n'
p546
I131
sS'NOTE: enlarging \\S+ to \\S+ threads for group \\S+ \\(.*\\)\n'
p547
I332
sS'NOTE: Using GPnP to retrieve the \\S+ password file location in exclusive mode\n'
p548
I275
sS'NOTE: registering \\S+ \\[.*\\] for client \\S+ \\S+ ospid \\S+\n'
p549
I378
sS'lmon registered with \\S+ - instance number \\S+ \\(.*\\)\n'
p550
I692
sS'NOTE: \\S+ attempting to mount thread \\S+ for diskgroup \\S+ \\(.*\\)\n'
p551
I199
sS'CLMN started with \\S+ \\S+ \\S+\n'
p552
I25
sS'NOTE: redo buffer size is \\S+ blocks \\(.*\\)\n'
p553
I375
sS'Storage:\tExadata\n'
p554
I568
sS'ERROR: disk 0\\(.*\\) in group .* cannot \\S+ offlined because the disk group has external redundancy.\n'
p555
I92
sS'Number of processor \\S+ in the system is \\S+\n'
p556
I424
sS'ERROR: /. Exadata Auto Mgmt: \\S+ \\S+ Disk ./\n'
p557
I67
sS'New instances \\(.*\\) \\S+\n'
p558
I418
sS'ORA-29702: error occurred in Cluster Group Service operation\n'
p559
I486
sS'NOTE: \\S+ registering with \\S+ instance as Standard client \\S+ \\(.*\\) \\(.*\\)\n'
p560
I219
sS'LMS0 \\(.*\\) has detected no messaging activity from instance \\S+\n'
p561
I176
sS'NOTE: This instance is the master for audit cleanup\n'
p562
I273
sS'Attached to domain \\S+ \\(.*\\)\n'
p563
I15
sS"incarnation:\\S+ \\S+ result:'.*'\n"
p564
I683
sS'NOTE: allocating \\S+ on grp \\S+ disk \\S+\n'
p565
I282
sS'NOTE: \\S+ \\S+ \\S+ copy \\S+ relocating from \\S+ to \\S+ at \\S+ \\S+\n'
p566
I196
sS'NOTE: \\[.*\\] \\S+ \\S+ file \\S+ osid \\S+\n'
p567
I232
sS'ORA-29702 .*\n'
p568
I485
sS'List of instances \\(.*\\) \\S+\n'
p569
I182
sS"ERROR: \\S+ \\S+ \\S+ \\S+  QUORUM \\S+ '.*' \\S+ \\S+\n"
p570
I56
sS'The instance eviction \\S+ is \\S+\n'
p571
I582
sS'GMON querying group \\S+ at \\S+ for pid \\S+ osid \\S+\n'
p572
I127
sS'NOTE: running client discovery for group \\S+ \\(.*\\)\n'
p573
I390
sS'NOTE: \\S+ starting instance recovery of group \\S+ domain \\S+ inc \\S+ \\(.*\\) at \\S+ \\S+\n'
p574
I224
sS'SYS auditing is enabled\n'
p575
I553
sS'Instance shutdown complete \\(.*\\)\n'
p576
I149
sS'NOTE: Voting file relocation is required in diskgroup \\S+\n'
p577
I278
sS'Error: Shutdown in progress. Error: \\S+\n'
p578
I101
sS'ksxp_exafusion_enabled_dcf: \\S+\n'
p579
I690
sS'ERROR: group \\S+ \\(.*\\): could not validate disk \\S+\n'
p580
I94
sS'NOTE: \\S+ heartbeating for grp \\S+ \\(.*\\)\n'
p581
I211
sS'See Note \\S+ at My Oracle Support for error and packaging details.\n'
p582
I558
sS'LMD0 started with \\S+ \\S+ \\S+\n'
p583
I168
sS'asm_diskstring           = ".*"\n'
p584
I671
sS'Warning: Oraping detected connectivity issues.\n'
p585
I655
sS'Exadata cell: \\S+ is no longer accessible. I/O errors to disks on this might get suppressed\n'
p586
I107
sS'in grp \\S+\n'
p587
I682
sS'Using parameter settings in server-side \\S+ \\S+\n'
p588
I598
sS'USER \\(.*\\): terminating the instance\n'
p589
I591
sS'Increasing priority of \\S+ \\S+\n'
p590
I145
sS'NOTE: Attempting voting file \\S+ \\S+ diskgroup \\S+\n'
p591
I239
sS'ORA-07445: exception encountered: core dump \\[.*\\] \\[.*\\] \\[.*\\] \\[.*\\] \\[.*\\] \\[.*\\]\n'
p592
I435
sS'LICENSE_MAX_USERS = \\S+\n'
p593
I164
sS'SMON started with \\S+ \\S+ \\S+\n'
p594
I552
sS'node \\S+ does not exist. \\S+ = \\S+\n'
p595
I693
sS'alter diskgroup \\S+ online disk \\S+\n'
p596
I665
sS"LGWR \\(.*\\) waits for event '.*' for \\S+ secs.\n"
p597
I161
sS'ORA-15090: handle \\S+ is not \\S+ valid descriptor\n'
p598
I461
sS'NOTE: completed disk validation for \\S+ \\(.*\\)\n'
p599
I319
sS'ORA-15283: \\S+ operation requires compatible.rdbms of \\S+ or higher\n'
p600
I472
sS"NOTE: cleaning up empty system-created directory '.*'\n"
p601
I308
sS'NOTE: \\S+ detected lock domain \\S+ invalid at system inc \\S+ \\S+ \\S+\n'
p602
I203
sS'ERROR: alter diskgroup \\S+ dismount force /. \\S+ \\S+ ./\n'
p603
I76
sS'NOTE: client \\S+ should failover\n'
p604
I315
sS'NOTE: Disk \\S+ in \\S+ \\S+ \\S+ \\S+ \\S+\n'
p605
I247
sS'NOTE: \\S+ found thread \\S+ closed at \\S+ \\S+ lock \\S+ \\S+ \\S+\n'
p606
I209
sS'ORA-27072: File I/O error\n'
p607
I482
sS'NOTE: stopping process \\S+\n'
p608
I396
sS'ORA-15067: command or option incompatible with diskgroup redundancy\n'
p609
I455
sS'Tns error struct:\n'
p610
I586
sS'ERROR: alter diskgroup \\S+ \\S+\n'
p611
I75
sS'ERROR: alter diskgroup \\S+ dismount\n'
p612
I77
sS'ORA-15078: \\S+ diskgroup was forcibly dismounted\n'
p613
I457
sS'Exadata Auto Mgmt: \\S+ \\S+ Disk ./\n'
p614
I106
sS'IPC Send timeout: Terminating pid \\S+ osid \\S+\n'
p615
I142
sS'NOTE: grp \\S+ disk \\S+ expelled from the \\S+\n'
p616
I354
sS'Communications reconfiguration: \\S+ \\S+ by ospid \\S+\n'
p617
I32
sS'NOTE: halting all I/Os to diskgroup \\S+ \\(.*\\)\n'
p618
I355
sS'ORA-15130: diskgroup ".*" is being dismounted\n'
p619
I462
sS'WARNING: Read Failed. \\S+ \\S+ \\S+ \\S+ \\S+\n'
p620
I624
sS'NOTE: write to disk \\S+ succeeded\n'
p621
I412
sS'VKTM running at \\(.*\\)millisec precision with \\S+ quantum \\(.*\\)ms\n'
p622
I602
sS'MMON started with \\S+ \\S+ \\S+\n'
p623
I189
sS'NOTE: \\S+ not being messaged to dismount\n'
p624
I212
sS'Please check instance \\S+ alert and \\S+ trace files for detail.\n'
p625
I524
sS'ORA-15054: disk ".*" does not exist in diskgroup ".*"\n'
p626
I451
sS'NOTE: Loaded library: /opt/oracle/extapi/64/asm/orcl/1/libafd12.so\n'
p627
I259
sS'Cause - .*\n'
p628
I26
sS'NOTE: discarding redo for group \\S+ disk \\S+\n'
p629
I326
sS'NOTE: diskgroup must now \\S+ re-mounted prior to first use\n'
p630
I330
sS'prior to instance startup operation.\n'
p631
I699
sS'Dead instances \\(.*\\) \\S+\n'
p632
I40
sS'LMON \\(.*\\) drops the \\S+ request from \\S+ \\(.*\\) because \\S+ is in progress and inst \\S+ is marked bad.\n'
p633
I171
sS'ERROR: Failed to cleanup the \\S+ stale FDs\n'
p634
I69
sS"ORA-00453: backgroud process '.*' is \\S+\n"
p635
I426
sS'Per process system memlock \\(.*\\) limit = \\S+\n'
p636
I522
sS'Suppressed nested communications reconfiguration: \\S+ \\S+\n'
p637
I572
sS'TNS-12545: Connect failed because target host or object does not exist\n'
p638
I581
sS'NOTE: Trace records dumped in trace file \\S+\n'
p639
I274
sS'Decreasing priority of \\S+ \\S+\n'
p640
I41
sS'NOTE: group \\S+ \\S+ not updated.\n'
p641
I342
sS'NOTE: \\S+ will attempt offline of disk \\S+ - no header\n'
p642
I231
sS'NOTE: group \\S+ \\(.*\\) high disk header ckpt advanced to fcn \\S+\n'
p643
I339
sS'ORA-29746 .*\n'
p644
I491
sS'NOTE: Shutting down \\S+ background process\n'
p645
I265
sS'Dirty detach reconfiguration started \\(.*\\)\n'
p646
I44
sS'IPC Send timeout to \\S+ inc \\S+ for msg type \\S+ from opid \\S+\n'
p647
I141
sS'Restarting \\S+ background process \\S+\n'
p648
I549
sS'ORA-06512: at line \\S+\n'
p649
I433
sS'NOTE: \\S+ \\S+ \\S+ found on disk \\S+ au \\S+ fcn \\S+ datfmt \\S+\n'
p650
I197
sS'System state dump requested by \\(.*\\), summary=\\[.*\\].\n'
p651
I576
sS'NOTE: group \\S+ initial \\S+ location: disks \\S+\n'
p652
I347
sS'Reason for not supporting certain system pagesizes:\n'
p653
I540
sS"NOTE: get diskgroups to mount for database '.*'\n"
p654
I338
sS'NOTE: initiating \\S+ update: grp = \\S+\n'
p655
I362
sS'Oracle Bequeath \\S+ Protocol Adapter for Linux: Version \\S+ - Production\n'
p656
I511
sS'WARNING: rejecting addition of disk number \\S+ to group \\S+\n'
p657
I650
sS'GMON checking disk modes for group \\S+ at \\S+ for pid \\S+ osid \\S+\n'
p658
I123
sS'ossnet_fail_defcon: Giving up on Cell \\S+ as retry limit \\(.*\\) reached.\n'
p659
I698
sS'Error: received an \\S+ event from the Cluster Synchronization Service\n'
p660
I102
sS'ERROR: too many offline disks in \\S+ \\(.*\\)\n'
p661
I96
sS'ORA-15315: Write errors in disk group \\S+ could lead to inconsistent \\S+ metadata.\n'
p662
I474
sS'force\n'
p663
I680
sS'Execute glob on the string \\S+\n'
p664
I110
sS'Processes \\S+ and \\S+ may \\S+ blocked while \\S+ performs thread mount.\n'
p665
I533
sS'ERROR: diskgroup \\S+ was not \\S+\n'
p666
I93
sS'Errors in file \\S+  \\(.*\\):\n'
p667
I103
sS'RBAL started with \\S+ \\S+ \\S+\n'
p668
I536
sS'PMON \\(.*\\): terminating the instance due to \\S+ error \\S+\n'
p669
I517
sS'NOTE: \\S+ validation of lock domain \\S+ failed \\(.*\\)\n'
p670
I229
sS'NOTE: Extended the Used Space Directory to thread \\S+\n'
p671
I252
sS'NOTE: PatchLevel of this instance \\S+\n'
p672
I261
sS'Shutting down archive processes\n'
p673
I562
sS'NOTE: Created Used Space Directory for \\S+ threads\n'
p674
I242
sS'Cell: \\S+ could not \\S+ opened during discovery\n'
p675
I27
sS'NOTE: cache began mount \\(.*\\) of group \\S+ \\S+\n'
p676
I287
sS'Please check the \\S+ log file for more \\S+\n'
p677
I525
sS'ORA-15186: \\S+ error \\S+\n'
p678
I465
sS'NOTE: cache initiating offline of disk \\S+ group \\S+\n'
p679
I295
sS'LCK0 \\(.*\\) received unexpected status \\(.*\\) from the Cluster Synchronization Service.\n'
p680
I158
sS'NOTE: Physical metadata for diskgroup \\S+ \\(.*\\) was replicated.\n'
p681
I262
sS'ERROR: \\S+ \\S+ \\S+ \\S+ /. asm agent call crs .//. \\{.*\\} ./\n'
p682
I58
sS'NOTE: remote asm mode is \\S+ \\(.*\\)\n'
p683
I384
sS'ORA-15268: internal Oracle file \\S+ already exists.\n'
p684
I470
sS'NOTE: recovering disk \\S+ in diskgroup \\S+ \\(.*\\) after \\S+ failed disk online\n'
p685
I374
sS'GCR0\\[.*\\]: \\S+ process is not making progress for \\S+ secs, trying to restart it\n'
p686
I118
sS'Waiting for instances to leave: \\S+\n'
p687
I653
sS'requested by \\(.*\\), summary=\\[.*\\]\n'
p688
I701
sS'NOTE: dbwr not being msg.*\n'
p689
I322
sS'Received detach msg from inst \\S+ for dom \\S+\n'
p690
I542
sS'WARNING: failed to copy file \\S+ extent \\S+ disk \\S+ au \\S+ offset \\S+ status \\S+\n'
p691
I635
sS'NOTE: updating disk modes to \\S+ from \\S+ for disk \\S+ \\(.*\\) in group \\S+ \\(.*\\): lflags \\S+    \n'
p692
I404
sS'NOTE: \\S+ on disk \\S+ \\(.*\\) relocated at fcn \\S+ \\S+ \\S+ -> \\S+ \\S+\n'
p693
I213
sS'CDB instance recovery on pdb \\S+ needs to \\S+ aborted \\(.*\\)\n'
p694
I21
sS'Scanned disk \\S+\n'
p695
I557
sS'WARNING: \\S+ signaled when performing \\S+ block repair for \\S+ \\S+ \\S+\n'
p696
I613
sS'Process \\S+ died, see its trace file\n'
p697
I530
sS'ERROR: \\S+ \\S+ \\S+ \\S+  /. asm agent .//. \\{.*\\} ./\n'
p698
I54
sS"ERROR: alter diskgroup vfdg \\S+ disk '.*' name \\S+ force\n"
p699
I87
sS'NOTE: group \\S+ updated \\S+ location: disks \\S+ \\S+ \\S+ \\S+ \\S+ \\S+ \\S+\n'
p700
I348
sS'LREG started with \\S+ \\S+ \\S+\n'
p701
I178
sS'Initial number of \\S+ is \\S+\n'
p702
I146
sS'ASMCMD ./ALTER \\S+ \\S+ \\S+\n'
p703
I8
sS'ORACLE_BASE value has been saved for future startups\n'
p704
I507
sS'Dumping diagnostic data in directory=\\[.*\\], requested by \\(.*\\), summary=\\[.*\\].\n'
p705
I48
sS'NOTE: \\S+ client \\S+ disconnected unexpectedly.\n'
p706
I201
sS'NOTE: Assigning number \\(.*\\) to disk \\(.*\\)\n'
p707
I238
sS'Instance shutdown cancelled\n'
p708
I148
sS'NOTE: initializing header on grp \\S+ disk \\S+\n'
p709
I359
sS'asm_diskgroups           = ".*"\n'
p710
I670
sS'NOTE: group \\S+ updated \\S+ location: disks \\S+ \\S+ \\S+ \\S+ \\S+\n'
p711
I350
s.